target datalayout = "e-m:e-p270:32:32-p271:32:32-p272:64:64-i64:64-i128:128-f80:128-n8:16:32:64-S128"
target triple = "x86_64-pc-linux-gnu"

%struct.GDBUserState = type { i32, ptr, i32, i8, [16 x i64], i8, i32, [2 x i32], i32, i32, [128 x i8], i64 }
%struct.GDBState = type { i8, ptr, ptr, ptr, i32, [4096 x i8], i32, i32, i32, ptr, i32, i8, ptr, i32, ptr, ptr, i32, i32, i8 }
%struct._GString = type { ptr, i64, i64 }
%struct._GArray = type { ptr, i32 }
%union.GdbCmdVariant = type { ptr, [8 x i8] }

@gdbserver_user_state = internal global %struct.GDBUserState zeroinitializer, align 8
@gdbserver_state = external global %struct.GDBState, align 8
@.str.25 = private unnamed_addr constant [4 x i8] c"E01\00", align 1
@.str.26 = private unnamed_addr constant [2 x i8] c"l\00", align 1

; Function Attrs: nounwind sspstrong uwtable
define dso_local void @gdb_handle_query_xfer_siginfo(ptr noundef %0, ptr noundef %1) #0 {
  %3 = alloca ptr, align 8
  %4 = alloca ptr, align 8
  %5 = alloca i64, align 8
  %6 = alloca i64, align 8
  %7 = alloca ptr, align 8
  %8 = alloca i32, align 4
  store ptr %0, ptr %3, align 8
  store ptr %1, ptr %4, align 8
  call void @llvm.lifetime.start.p0(i64 8, ptr %5) #14
  store i64 0, ptr %5, align 8, !annotation !4
  call void @llvm.lifetime.start.p0(i64 8, ptr %6) #14
  store i64 0, ptr %6, align 8, !annotation !4
  call void @llvm.lifetime.start.p0(i64 8, ptr %7) #14
  store ptr null, ptr %7, align 8, !annotation !4
  %9 = load ptr, ptr %3, align 8
  %10 = getelementptr inbounds nuw %struct._GArray, ptr %9, i32 0, i32 0
  %11 = load ptr, ptr %10, align 8
  %12 = getelementptr inbounds %union.GdbCmdVariant, ptr %11, i64 0
  %13 = load i64, ptr %12, align 8
  store i64 %13, ptr %5, align 8
  %14 = load ptr, ptr %3, align 8
  %15 = getelementptr inbounds nuw %struct._GArray, ptr %14, i32 0, i32 0
  %16 = load ptr, ptr %15, align 8
  %17 = getelementptr inbounds %union.GdbCmdVariant, ptr %16, i64 1
  %18 = load i64, ptr %17, align 8
  store i64 %18, ptr %6, align 8
  %19 = load i64, ptr %5, align 8
  %20 = load i64, ptr %6, align 8
  %21 = add i64 %19, %20
  %22 = load i64, ptr getelementptr inbounds nuw (%struct.GDBUserState, ptr @gdbserver_user_state, i32 0, i32 11), align 8
  %23 = icmp ugt i64 %21, %22
  br i1 %23, label %24, label %26

24:                                               ; preds = %2
  %25 = call i32 @gdb_put_packet(ptr noundef @.str.25)
  store i32 1, ptr %8, align 4
  br label %43

26:                                               ; preds = %2
  %27 = load i64, ptr %5, align 8
  %28 = getelementptr inbounds nuw i8, ptr getelementptr inbounds nuw (%struct.GDBUserState, ptr @gdbserver_user_state, i32 0, i32 10), i64 %27
  store ptr %28, ptr %7, align 8
  %29 = load ptr, ptr getelementptr inbounds nuw (%struct.GDBState, ptr @gdbserver_state, i32 0, i32 14), align 8
  %30 = call ptr @g_string_assign(ptr noundef %29, ptr noundef @.str.26)
  %31 = load ptr, ptr getelementptr inbounds nuw (%struct.GDBState, ptr @gdbserver_state, i32 0, i32 14), align 8
  %32 = load ptr, ptr %7, align 8
  %33 = load i64, ptr %6, align 8
  %34 = trunc i64 %33 to i32
  call void @gdb_memtox(ptr noundef %31, ptr noundef %32, i32 noundef %34)
  %35 = load ptr, ptr getelementptr inbounds nuw (%struct.GDBState, ptr @gdbserver_state, i32 0, i32 14), align 8
  %36 = getelementptr inbounds nuw %struct._GString, ptr %35, i32 0, i32 0
  %37 = load ptr, ptr %36, align 8
  %38 = load ptr, ptr getelementptr inbounds nuw (%struct.GDBState, ptr @gdbserver_state, i32 0, i32 14), align 8
  %39 = getelementptr inbounds nuw %struct._GString, ptr %38, i32 0, i32 1
  %40 = load i64, ptr %39, align 8
  %41 = trunc i64 %40 to i32
  %42 = call i32 @gdb_put_packet_binary(ptr noundef %37, i32 noundef %41, i1 noundef zeroext true)
  store i32 0, ptr %8, align 4
  br label %43

43:                                               ; preds = %26, %24
  call void @llvm.lifetime.end.p0(i64 8, ptr %7) #14
  call void @llvm.lifetime.end.p0(i64 8, ptr %6) #14
  call void @llvm.lifetime.end.p0(i64 8, ptr %5) #14
  %44 = load i32, ptr %8, align 4
  switch i32 %44, label %46 [
    i32 0, label %45
    i32 1, label %45
  ]

45:                                               ; preds = %43, %43
  ret void

46:                                               ; preds = %43
  unreachable
}