; Function Attrs: nounwind sspstrong uwtable
define dso_local void @gdb_handle_query_xfer_siginfo(ptr noundef readonly captures(none) %0, ptr noundef readnone captures(none) %1) local_unnamed_addr #0 {
  %3 = load ptr, ptr %0, align 8
  %4 = load i64, ptr %3, align 8
  %5 = getelementptr inbounds nuw i8, ptr %3, i64 16
  %6 = load i64, ptr %5, align 8
  %7 = add i64 %6, %4
  %8 = load i64, ptr getelementptr inbounds nuw (i8, ptr @gdbserver_user_state, i64 304), align 8
  %9 = icmp ugt i64 %7, %8
  br i1 %9, label %10, label %12

10:                                               ; preds = %2
  %11 = tail call i32 @gdb_put_packet(ptr noundef nonnull @.str.25) #16
  br label %24

12:                                               ; preds = %2
  %13 = getelementptr inbounds nuw i8, ptr getelementptr inbounds nuw (i8, ptr @gdbserver_user_state, i64 176), i64 %4
  %14 = load ptr, ptr getelementptr inbounds nuw (i8, ptr @gdbserver_state, i64 4176), align 8
  %15 = tail call ptr @g_string_assign(ptr noundef %14, ptr noundef nonnull @.str.26) #16
  %16 = load ptr, ptr getelementptr inbounds nuw (i8, ptr @gdbserver_state, i64 4176), align 8
  %17 = trunc i64 %6 to i32
  tail call void @gdb_memtox(ptr noundef %16, ptr noundef nonnull %13, i32 noundef %17) #16
  %18 = load ptr, ptr getelementptr inbounds nuw (i8, ptr @gdbserver_state, i64 4176), align 8
  %19 = load ptr, ptr %18, align 8
  %20 = getelementptr inbounds nuw i8, ptr %18, i64 8
  %21 = load i64, ptr %20, align 8
  %22 = trunc i64 %21 to i32
  %23 = tail call i32 @gdb_put_packet_binary(ptr noundef %19, i32 noundef %22, i1 noundef zeroext true) #16
  br label %24

24:                                               ; preds = %12, %10
  ret void
}